target datalayout = "e-m:e-p270:32:32-p271:32:32-p272:64:64-i64:64-i128:128-f80:128-n8:16:32:64-S128"
target triple = "x86_64-pc-linux-gnu"

%struct._header_field_info = type { ptr, ptr, i32, i32, ptr, i64, ptr, i32, i32, i32, i32, ptr }
%struct._packet_info = type { ptr, ptr, i32, i32, %struct.nstime_t, %struct.nstime_t, %struct.nstime_t, i8, ptr, ptr, ptr, ptr, %struct._address, %struct._address, %struct._address, %struct._address, %struct._address, %struct._address, i32, ptr, i8, [3 x i8], %struct.anon, i32, i32, i32, i32, ptr, i8, ptr, ptr, i16, i16, i32, i32, i16, i32, i32, ptr, ptr, ptr, i8, i8, i16, i16, i16, i32, i16, i16, ptr, ptr, ptr, ptr, ptr, i32, i32 }
%struct.nstime_t = type { i64, i32 }
%struct._address = type { i32, i32, ptr, ptr }
%struct.anon = type { i8, [3 x i8] }

@.str.1 = private unnamed_addr constant [42 x i8] c"%s:%u: field %s is not of type FT_STRINGZ\00", align 1
@.str.2 = private unnamed_addr constant [30 x i8] c"epan/dissectors/packet-wmio.c\00", align 1
@hf_wmio_encoded_string = internal global i32 0, align 4
@ett_wmio_encoded_string = internal global i32 0, align 4
@hf_heap_offset = internal global i32 0, align 4
@.str.3 = private unnamed_addr constant [7 x i8] c"%s: %s\00", align 1
@.str.4 = private unnamed_addr constant [5 x i8] c"NULL\00", align 1
@stringDictionary = internal global [11 x ptr] [ptr @.str.6, ptr @.str.7, ptr @.str.8, ptr @.str.9, ptr @.str.10, ptr @.str.11, ptr @.str.12, ptr @.str.13, ptr @.str.14, ptr @.str.15, ptr @.str.16], align 16
@.str.5 = private unnamed_addr constant [21 x i8] c"%s: Unknown Index %d\00", align 1
@hf_wmio_encoded_string_flags = internal global i32 0, align 4
@ett_wmio_encoded_string_flags = internal global i32 0, align 4
@wmio_encoded_string_flags = internal constant [2 x ptr] [ptr @hf_wmio_encoded_string_flags_unicode, ptr null], align 16
@hf_wmio_class_name_length = internal global i32 0, align 4

; Function Attrs: null_pointer_is_valid sspstrong uwtable
define internal i32 @dissect_wmio_encoded_string(ptr noundef %0, i32 noundef %1, i32 noundef %2, ptr noundef %3, ptr noundef %4, i1 noundef zeroext %5, i32 noundef %6) #0 {
  %8 = alloca ptr, align 8
  %9 = alloca i32, align 4
  %10 = alloca i32, align 4
  %11 = alloca ptr, align 8
  %12 = alloca ptr, align 8
  %13 = alloca i8, align 1
  %14 = alloca i32, align 4
  %15 = alloca ptr, align 8
  %16 = alloca ptr, align 8
  %17 = alloca i32, align 4
  %18 = alloca i32, align 4
  %19 = alloca ptr, align 8
  %20 = alloca ptr, align 8
  %21 = alloca i32, align 4
  %22 = alloca i64, align 8
  store ptr %0, ptr %8, align 8
  store i32 %1, ptr %9, align 4
  store i32 %2, ptr %10, align 4
  store ptr %3, ptr %11, align 8
  store ptr %4, ptr %12, align 8
  %23 = zext i1 %5 to i8
  store i8 %23, ptr %13, align 1
  store i32 %6, ptr %14, align 4
  call void @llvm.lifetime.start.p0(i64 8, ptr %15) #4
  call void @llvm.lifetime.start.p0(i64 8, ptr %16) #4
  call void @llvm.lifetime.start.p0(i64 4, ptr %17) #4
  %24 = load i32, ptr %9, align 4
  store i32 %24, ptr %17, align 4
  call void @llvm.lifetime.start.p0(i64 4, ptr %18) #4
  store i32 0, ptr %18, align 4
  call void @llvm.lifetime.start.p0(i64 8, ptr %19) #4
  call void @llvm.lifetime.start.p0(i64 8, ptr %20) #4
  store ptr null, ptr %20, align 8
  call void @llvm.lifetime.start.p0(i64 4, ptr %21) #4
  store i32 0, ptr %21, align 4
  %25 = load i32, ptr %10, align 4
  %26 = call ptr @proto_registrar_get_nth(i32 noundef %25)
  store ptr %26, ptr %19, align 8
  %27 = load ptr, ptr %19, align 8
  %28 = getelementptr inbounds nuw %struct._header_field_info, ptr %27, i32 0, i32 2
  %29 = load i32, ptr %28, align 8
  %30 = icmp eq i32 %29, 27
  br i1 %30, label %31, label %32

31:                                               ; preds = %7
  br label %37

32:                                               ; preds = %7
  %33 = load ptr, ptr %19, align 8
  %34 = getelementptr inbounds nuw %struct._header_field_info, ptr %33, i32 0, i32 1
  %35 = load ptr, ptr %34, align 8
  call void (ptr, ...) @proto_report_dissector_bug(ptr noundef @.str.1, ptr noundef @.str.2, i32 noundef 453, ptr noundef %35) #5
  unreachable

36:                                               ; No predecessors!
  br label %37

37:                                               ; preds = %36, %31
  %38 = load i32, ptr %14, align 4
  %39 = icmp sgt i32 %38, 0
  br i1 %39, label %40, label %51

40:                                               ; preds = %37
  %41 = load ptr, ptr %8, align 8
  %42 = load i32, ptr %9, align 4
  %43 = call i32 @tvb_get_uint32(ptr noundef %41, i32 noundef %42, i32 noundef -2147483648)
  store i32 %43, ptr %21, align 4
  %44 = load i32, ptr %21, align 4
  %45 = icmp ult i32 %44, -2147483648
  br i1 %45, label %46, label %50

46:                                               ; preds = %40
  %47 = load i32, ptr %14, align 4
  %48 = load i32, ptr %21, align 4
  %49 = add i32 %47, %48
  store i32 %49, ptr %9, align 4
  br label %50

50:                                               ; preds = %46, %40
  br label %51

51:                                               ; preds = %50, %37
  %52 = load ptr, ptr %12, align 8
  %53 = load i32, ptr @hf_wmio_encoded_string, align 4
  %54 = load ptr, ptr %8, align 8
  %55 = load i32, ptr %9, align 4
  %56 = call ptr @proto_tree_add_item(ptr noundef %52, i32 noundef %53, ptr noundef %54, i32 noundef %55, i32 noundef -1, i32 noundef 0)
  store ptr %56, ptr %15, align 8
  %57 = load ptr, ptr %15, align 8
  %58 = load i32, ptr @ett_wmio_encoded_string, align 4
  %59 = call ptr @proto_item_add_subtree(ptr noundef %57, i32 noundef %58)
  store ptr %59, ptr %16, align 8
  %60 = load i32, ptr %14, align 4
  %61 = icmp sgt i32 %60, 0
  br i1 %61, label %62, label %105

62:                                               ; preds = %51
  %63 = load i32, ptr %21, align 4
  %64 = icmp uge i32 %63, -2147483648
  br i1 %64, label %65, label %105

65:                                               ; preds = %62
  %66 = load ptr, ptr %16, align 8
  %67 = load i32, ptr @hf_heap_offset, align 4
  %68 = load ptr, ptr %8, align 8
  %69 = load i32, ptr %17, align 4
  %70 = call ptr @proto_tree_add_item(ptr noundef %66, i32 noundef %67, ptr noundef %68, i32 noundef %69, i32 noundef 4, i32 noundef -2147483648)
  %71 = load i32, ptr %21, align 4
  %72 = icmp eq i32 %71, -1
  br i1 %72, label %73, label %78

73:                                               ; preds = %65
  %74 = load ptr, ptr %16, align 8
  %75 = load i32, ptr %10, align 4
  %76 = call ptr @proto_registrar_get_name(i32 noundef %75)
  call void (ptr, ptr, ...) @proto_item_set_text(ptr noundef %74, ptr noundef @.str.3, ptr noundef %76, ptr noundef @.str.4)
  %77 = load ptr, ptr %15, align 8
  call void @proto_item_set_len(ptr noundef %77, i32 noundef 4)
  br label %104

78:                                               ; preds = %65
  %79 = load i32, ptr %21, align 4
  %80 = and i32 %79, -2147483648
  %81 = icmp ne i32 %80, 0
  br i1 %81, label %82, label %103

82:                                               ; preds = %78
  %83 = load i32, ptr %21, align 4
  %84 = and i32 2147483647, %83
  store i32 %84, ptr %21, align 4
  %85 = load i32, ptr %21, align 4
  %86 = zext i32 %85 to i64
  %87 = icmp ult i64 %86, 11
  br i1 %87, label %88, label %96

88:                                               ; preds = %82
  %89 = load ptr, ptr %16, align 8
  %90 = load i32, ptr %10, align 4
  %91 = call ptr @proto_registrar_get_name(i32 noundef %90)
  %92 = load i32, ptr %21, align 4
  %93 = zext i32 %92 to i64
  %94 = getelementptr [11 x ptr], ptr @stringDictionary, i64 0, i64 %93
  %95 = load ptr, ptr %94, align 8
  call void (ptr, ptr, ...) @proto_item_set_text(ptr noundef %89, ptr noundef @.str.3, ptr noundef %91, ptr noundef %95)
  br label %101

96:                                               ; preds = %82
  %97 = load ptr, ptr %16, align 8
  %98 = load i32, ptr %10, align 4
  %99 = call ptr @proto_registrar_get_name(i32 noundef %98)
  %100 = load i32, ptr %10, align 4
  call void (ptr, ptr, ...) @proto_item_set_text(ptr noundef %97, ptr noundef @.str.5, ptr noundef %99, i32 noundef %100)
  br label %101

101:                                              ; preds = %96, %88
  %102 = load ptr, ptr %15, align 8
  call void @proto_item_set_len(ptr noundef %102, i32 noundef 4)
  br label %103

103:                                              ; preds = %101, %78
  br label %104

104:                                              ; preds = %103, %73
  br label %179

105:                                              ; preds = %62, %51
  call void @llvm.lifetime.start.p0(i64 8, ptr %22) #4
  %106 = load i32, ptr %14, align 4
  %107 = icmp sgt i32 %106, 0
  br i1 %107, label %108, label %114

108:                                              ; preds = %105
  %109 = load ptr, ptr %16, align 8
  %110 = load i32, ptr @hf_heap_offset, align 4
  %111 = load ptr, ptr %8, align 8
  %112 = load i32, ptr %17, align 4
  %113 = call ptr @proto_tree_add_item(ptr noundef %109, i32 noundef %110, ptr noundef %111, i32 noundef %112, i32 noundef 4, i32 noundef -2147483648)
  br label %114

114:                                              ; preds = %108, %105
  %115 = load i32, ptr %9, align 4
  store i32 %115, ptr %17, align 4
  %116 = load ptr, ptr %16, align 8
  %117 = load ptr, ptr %8, align 8
  %118 = load i32, ptr %9, align 4
  %119 = load i32, ptr @hf_wmio_encoded_string_flags, align 4
  %120 = load i32, ptr @ett_wmio_encoded_string_flags, align 4
  %121 = call ptr @proto_tree_add_bitmask_ret_uint64(ptr noundef %116, ptr noundef %117, i32 noundef %118, i32 noundef %119, i32 noundef %120, ptr noundef @wmio_encoded_string_flags, i32 noundef 0, ptr noundef %22)
  %122 = load i32, ptr %9, align 4
  %123 = add i32 %122, 1
  store i32 %123, ptr %9, align 4
  %124 = load i64, ptr %22, align 8
  %125 = icmp eq i64 %124, 0
  br i1 %125, label %126, label %139

126:                                              ; preds = %114
  %127 = load ptr, ptr %16, align 8
  %128 = load i32, ptr %10, align 4
  %129 = load ptr, ptr %8, align 8
  %130 = load i32, ptr %9, align 4
  %131 = call ptr @proto_tree_add_item_ret_length(ptr noundef %127, i32 noundef %128, ptr noundef %129, i32 noundef %130, i32 noundef -1, i32 noundef 0, ptr noundef %18)
  %132 = load ptr, ptr %11, align 8
  %133 = getelementptr inbounds nuw %struct._packet_info, ptr %132, i32 0, i32 51
  %134 = load ptr, ptr %133, align 8
  %135 = load ptr, ptr %8, align 8
  %136 = load i32, ptr %9, align 4
  %137 = load i32, ptr %18, align 4
  %138 = call ptr @tvb_get_string_enc(ptr noundef %134, ptr noundef %135, i32 noundef %136, i32 noundef %137, i32 noundef 0)
  store ptr %138, ptr %20, align 8
  br label %156

139:                                              ; preds = %114
  %140 = load i64, ptr %22, align 8
  %141 = icmp eq i64 %140, 1
  br i1 %141, label %142, label %155

142:                                              ; preds = %139
  %143 = load ptr, ptr %16, align 8
  %144 = load i32, ptr %10, align 4
  %145 = load ptr, ptr %8, align 8
  %146 = load i32, ptr %9, align 4
  %147 = call ptr @proto_tree_add_item_ret_length(ptr noundef %143, i32 noundef %144, ptr noundef %145, i32 noundef %146, i32 noundef -1, i32 noundef -2147483644, ptr noundef %18)
  %148 = load ptr, ptr %11, align 8
  %149 = getelementptr inbounds nuw %struct._packet_info, ptr %148, i32 0, i32 51
  %150 = load ptr, ptr %149, align 8
  %151 = load ptr, ptr %8, align 8
  %152 = load i32, ptr %9, align 4
  %153 = load i32, ptr %18, align 4
  %154 = call ptr @tvb_get_string_enc(ptr noundef %150, ptr noundef %151, i32 noundef %152, i32 noundef %153, i32 noundef 4)
  store ptr %154, ptr %20, align 8
  br label %155

155:                                              ; preds = %142, %139
  br label %156

156:                                              ; preds = %155, %126
  %157 = load i32, ptr %18, align 4
  %158 = load i32, ptr %9, align 4
  %159 = add i32 %158, %157
  store i32 %159, ptr %9, align 4
  %160 = load ptr, ptr %16, align 8
  %161 = load i32, ptr %10, align 4
  %162 = call ptr @proto_registrar_get_name(i32 noundef %161)
  %163 = load ptr, ptr %20, align 8
  call void (ptr, ptr, ...) @proto_item_set_text(ptr noundef %160, ptr noundef @.str.3, ptr noundef %162, ptr noundef %163)
  %164 = load i8, ptr %13, align 1, !range !6, !noundef !7
  %165 = trunc i8 %164 to i1
  br i1 %165, label %166, label %174

166:                                              ; preds = %156
  %167 = load ptr, ptr %16, align 8
  %168 = load i32, ptr @hf_wmio_class_name_length, align 4
  %169 = load ptr, ptr %8, align 8
  %170 = load i32, ptr %9, align 4
  %171 = call ptr @proto_tree_add_item(ptr noundef %167, i32 noundef %168, ptr noundef %169, i32 noundef %170, i32 noundef 4, i32 noundef -2147483648)
  %172 = load i32, ptr %9, align 4
  %173 = add i32 %172, 4
  store i32 %173, ptr %9, align 4
  br label %174

174:                                              ; preds = %166, %156
  %175 = load ptr, ptr %15, align 8
  %176 = load i32, ptr %9, align 4
  %177 = load i32, ptr %17, align 4
  %178 = sub i32 %176, %177
  call void @proto_item_set_len(ptr noundef %175, i32 noundef %178)
  call void @llvm.lifetime.end.p0(i64 8, ptr %22) #4
  br label %179

179:                                              ; preds = %174, %104
  %180 = load i32, ptr %9, align 4
  call void @llvm.lifetime.end.p0(i64 4, ptr %21) #4
  call void @llvm.lifetime.end.p0(i64 8, ptr %20) #4
  call void @llvm.lifetime.end.p0(i64 8, ptr %19) #4
  call void @llvm.lifetime.end.p0(i64 4, ptr %18) #4
  call void @llvm.lifetime.end.p0(i64 4, ptr %17) #4
  call void @llvm.lifetime.end.p0(i64 8, ptr %16) #4
  call void @llvm.lifetime.end.p0(i64 8, ptr %15) #4
  ret i32 %180
}