; Function Attrs: null_pointer_is_valid sspstrong uwtable
define internal fastcc i32 @dissect_wmio_encoded_string(ptr noundef %0, i32 noundef %1, i32 noundef %2, ptr noundef readonly captures(none) %3, ptr noundef %4, i1 noundef zeroext %5, i32 noundef %6) unnamed_addr #0 {
  %8 = alloca i32, align 4
  %9 = alloca i64, align 8
  call void @llvm.lifetime.start.p0(i64 4, ptr nonnull %8) #4
  store i32 0, ptr %8, align 4
  %10 = tail call ptr @proto_registrar_get_nth(i32 noundef %2)
  %11 = getelementptr inbounds nuw i8, ptr %10, i64 16
  %12 = load i32, ptr %11, align 8
  %13 = icmp eq i32 %12, 27
  br i1 %13, label %17, label %14

14:                                               ; preds = %7
  %15 = getelementptr inbounds nuw i8, ptr %10, i64 8
  %16 = load ptr, ptr %15, align 8
  tail call void (ptr, ...) @proto_report_dissector_bug(ptr noundef nonnull @.str.1, ptr noundef nonnull @.str.2, i32 noundef 453, ptr noundef %16) #5
  unreachable

17:                                               ; preds = %7
  %18 = icmp sgt i32 %6, 0
  br i1 %18, label %19, label %23

19:                                               ; preds = %17
  %20 = tail call i32 @tvb_get_uint32(ptr noundef %0, i32 noundef %1, i32 noundef -2147483648)
  %21 = add nuw i32 %20, %6
  %22 = icmp slt i32 %20, 0
  %spec.select = select i1 %22, i32 %1, i32 %21
  br label %23

23:                                               ; preds = %19, %17
  %.070 = phi i32 [ %1, %17 ], [ %spec.select, %19 ]
  %.0 = phi i32 [ 0, %17 ], [ %20, %19 ]
  %24 = load i32, ptr @hf_wmio_encoded_string, align 4
  %25 = tail call ptr @proto_tree_add_item(ptr noundef %4, i32 noundef %24, ptr noundef %0, i32 noundef %.070, i32 noundef -1, i32 noundef 0)
  %26 = load i32, ptr @ett_wmio_encoded_string, align 4
  %27 = tail call ptr @proto_item_add_subtree(ptr noundef %25, i32 noundef %26)
  %28 = icmp slt i32 %.0, 0
  %or.cond = and i1 %18, %28
  br i1 %or.cond, label %29, label %46

29:                                               ; preds = %23
  %30 = load i32, ptr @hf_heap_offset, align 4
  %31 = tail call ptr @proto_tree_add_item(ptr noundef %27, i32 noundef %30, ptr noundef %0, i32 noundef %1, i32 noundef 4, i32 noundef -2147483648)
  %32 = icmp eq i32 %.0, -1
  br i1 %32, label %33, label %35

33:                                               ; preds = %29
  %34 = tail call ptr @proto_registrar_get_name(i32 noundef %2)
  tail call void (ptr, ptr, ...) @proto_item_set_text(ptr noundef %27, ptr noundef nonnull @.str.3, ptr noundef %34, ptr noundef nonnull @.str.4)
  tail call void @proto_item_set_len(ptr noundef %25, i32 noundef 4)
  br label %72

35:                                               ; preds = %29
  %36 = and i32 %.0, 2147483647
  %37 = icmp samesign ult i32 %36, 11
  br i1 %37, label %38, label %43

38:                                               ; preds = %35
  %39 = zext nneg i32 %36 to i64
  %40 = tail call ptr @proto_registrar_get_name(i32 noundef %2)
  %41 = getelementptr [11 x ptr], ptr @stringDictionary, i64 0, i64 %39
  %42 = load ptr, ptr %41, align 8
  tail call void (ptr, ptr, ...) @proto_item_set_text(ptr noundef %27, ptr noundef nonnull @.str.3, ptr noundef %40, ptr noundef %42)
  br label %45

43:                                               ; preds = %35
  %44 = tail call ptr @proto_registrar_get_name(i32 noundef %2)
  tail call void (ptr, ptr, ...) @proto_item_set_text(ptr noundef %27, ptr noundef nonnull @.str.5, ptr noundef %44, i32 noundef %2)
  br label %45

45:                                               ; preds = %43, %38
  tail call void @proto_item_set_len(ptr noundef %25, i32 noundef 4)
  br label %72

46:                                               ; preds = %23
  call void @llvm.lifetime.start.p0(i64 8, ptr nonnull %9) #4
  br i1 %18, label %47, label %50

47:                                               ; preds = %46
  %48 = load i32, ptr @hf_heap_offset, align 4
  %49 = tail call ptr @proto_tree_add_item(ptr noundef %27, i32 noundef %48, ptr noundef %0, i32 noundef %1, i32 noundef 4, i32 noundef -2147483648)
  br label %50

50:                                               ; preds = %47, %46
  %51 = load i32, ptr @hf_wmio_encoded_string_flags, align 4
  %52 = load i32, ptr @ett_wmio_encoded_string_flags, align 4
  %53 = call ptr @proto_tree_add_bitmask_ret_uint64(ptr noundef %27, ptr noundef %0, i32 noundef %.070, i32 noundef %51, i32 noundef %52, ptr noundef nonnull @wmio_encoded_string_flags, i32 noundef 0, ptr noundef nonnull %9)
  %54 = add i32 %.070, 1
  %55 = load i64, ptr %9, align 8
  switch i64 %55, label %62 [
    i64 0, label %.sink.split
    i64 1, label %56
  ]

56:                                               ; preds = %50
  br label %.sink.split

.sink.split:                                      ; preds = %50, %56
  %.sink = phi i32 [ -2147483644, %56 ], [ 0, %50 ]
  %.sink77 = phi i32 [ 4, %56 ], [ 0, %50 ]
  %57 = call ptr @proto_tree_add_item_ret_length(ptr noundef %27, i32 noundef %2, ptr noundef %0, i32 noundef %54, i32 noundef -1, i32 noundef %.sink, ptr noundef nonnull %8)
  %58 = getelementptr inbounds nuw i8, ptr %3, i64 408
  %59 = load ptr, ptr %58, align 8
  %60 = load i32, ptr %8, align 4
  %61 = call ptr @tvb_get_string_enc(ptr noundef %59, ptr noundef %0, i32 noundef %54, i32 noundef %60, i32 noundef %.sink77)
  br label %62

62:                                               ; preds = %.sink.split, %50
  %.069 = phi ptr [ null, %50 ], [ %61, %.sink.split ]
  %63 = load i32, ptr %8, align 4
  %64 = add i32 %63, %54
  %65 = call ptr @proto_registrar_get_name(i32 noundef %2)
  call void (ptr, ptr, ...) @proto_item_set_text(ptr noundef %27, ptr noundef nonnull @.str.3, ptr noundef %65, ptr noundef %.069)
  br i1 %5, label %66, label %70

66:                                               ; preds = %62
  %67 = load i32, ptr @hf_wmio_class_name_length, align 4
  %68 = call ptr @proto_tree_add_item(ptr noundef %27, i32 noundef %67, ptr noundef %0, i32 noundef %64, i32 noundef 4, i32 noundef -2147483648)
  %69 = add i32 %64, 4
  br label %70

70:                                               ; preds = %66, %62
  %.2 = phi i32 [ %69, %66 ], [ %64, %62 ]
  %71 = sub i32 %.2, %.070
  call void @proto_item_set_len(ptr noundef %25, i32 noundef %71)
  call void @llvm.lifetime.end.p0(i64 8, ptr nonnull %9) #4
  br label %72

72:                                               ; preds = %33, %45, %70
  %.1 = phi i32 [ %.070, %33 ], [ %.070, %45 ], [ %.2, %70 ]
  call void @llvm.lifetime.end.p0(i64 4, ptr nonnull %8) #4
  ret i32 %.1
}